target datalayout = "e-m:e-p270:32:32-p271:32:32-p272:64:64-i64:64-i128:128-f80:128-n8:16:32:64-S128"
target triple = "x86_64-pc-linux-gnu"

; Function Attrs: inlinehint mustprogress nounwind uwtable
define internal noundef signext i8 @_ZL9U_SUCCESS10UErrorCode(i32 noundef %0) #4 {
  %2 = alloca i32, align 4
  store i32 %0, ptr %2, align 4, !tbaa !14
  %3 = load i32, ptr %2, align 4, !tbaa !14
  %4 = icmp sle i32 %3, 0
  %5 = zext i1 %4 to i8
  ret i8 %5
}

; Function Attrs: mustprogress uwtable
define noundef signext i8 @_ZN6icu_7710EmojiProps17hasBinaryPropertyEPKDsi9UProperty(ptr noundef %0, i32 noundef %1, i32 noundef %2) #3 align 2 {
  %4 = alloca ptr, align 8
  %5 = alloca i32, align 4
  %6 = alloca i32, align 4
  %7 = alloca i32, align 4
  %8 = alloca ptr, align 8
  store ptr %0, ptr %4, align 8, !tbaa !25
  store i32 %1, ptr %5, align 4, !tbaa !37
  store i32 %2, ptr %6, align 4, !tbaa !47
  call void @llvm.lifetime.start.p0(i64 4, ptr %7) #11
  store i32 0, ptr %7, align 4, !tbaa !14
  call void @llvm.lifetime.start.p0(i64 8, ptr %8) #11
  %9 = call noundef ptr @_ZN6icu_7710EmojiProps12getSingletonER10UErrorCode(ptr noundef nonnull align 4 dereferenceable(4) %7)
  store ptr %9, ptr %8, align 8, !tbaa !3
  %10 = load i32, ptr %7, align 4, !tbaa !14
  %11 = call noundef signext i8 @_ZL9U_SUCCESS10UErrorCode(i32 noundef %10)
  %12 = icmp ne i8 %11, 0
  br i1 %12, label %13, label %20

13:                                               ; preds = %3
  %14 = load ptr, ptr %8, align 8, !tbaa !3
  %15 = load ptr, ptr %4, align 8, !tbaa !25
  %16 = load i32, ptr %5, align 4, !tbaa !37
  %17 = load i32, ptr %6, align 4, !tbaa !47
  %18 = call noundef signext i8 @_ZNK6icu_7710EmojiProps21hasBinaryPropertyImplEPKDsi9UProperty(ptr noundef nonnull align 8 dereferenceable(64) %14, ptr noundef %15, i32 noundef %16, i32 noundef %17)
  %19 = icmp ne i8 %18, 0
  br label %20

20:                                               ; preds = %13, %3
  %21 = phi i1 [ false, %3 ], [ %19, %13 ]
  %22 = zext i1 %21 to i8
  call void @llvm.lifetime.end.p0(i64 8, ptr %8) #11
  call void @llvm.lifetime.end.p0(i64 4, ptr %7) #11
  ret i8 %22
}