; Function Attrs: mustprogress uwtable
define noundef signext range(i8 0, 2) i8 @_ZN6icu_7710EmojiProps17hasBinaryPropertyEPKDsi9UProperty(ptr noundef %0, i32 noundef %1, i32 noundef %2) local_unnamed_addr #4 align 2 {
  %4 = alloca i32, align 4
  call void @llvm.lifetime.start.p0(i64 4, ptr nonnull %4) #10
  store i32 0, ptr %4, align 4, !tbaa !11
  %5 = call noundef ptr @_ZN6icu_7710EmojiProps12getSingletonER10UErrorCode(ptr noundef nonnull align 4 dereferenceable(4) %4)
  %6 = load i32, ptr %4, align 4, !tbaa !11
  %7 = icmp sgt i32 %6, 0
  br i1 %7, label %10, label %8

8:                                                ; preds = %3
  %9 = call noundef signext i8 @_ZNK6icu_7710EmojiProps21hasBinaryPropertyImplEPKDsi9UProperty(ptr noundef nonnull align 8 dereferenceable(64) %5, ptr noundef %0, i32 noundef %1, i32 noundef %2)
  br label %10

10:                                               ; preds = %8, %3
  %11 = phi i8 [ 0, %3 ], [ %9, %8 ]
  call void @llvm.lifetime.end.p0(i64 4, ptr nonnull %4) #10
  ret i8 %11
}